; Function Attrs: nounwind uwtable
define noundef i32 @yylex_destroy(ptr nocapture noundef %0) local_unnamed_addr #0 {
  %2 = getelementptr inbounds i8, ptr %0, i64 24
  %3 = getelementptr inbounds i8, ptr %0, i64 40
  %4 = load ptr, ptr %3, align 8
  %.not26 = icmp eq ptr %4, null
  br i1 %.not26, label %.thread, label %.lr.ph

.lr.ph:                                           ; preds = %1
  %5 = getelementptr inbounds i8, ptr %0, i64 52
  %6 = getelementptr inbounds i8, ptr %0, i64 64
  %7 = getelementptr inbounds i8, ptr %0, i64 128
  %8 = getelementptr inbounds i8, ptr %0, i64 8
  %9 = getelementptr inbounds i8, ptr %0, i64 48
  %10 = getelementptr inbounds i8, ptr %0, i64 80
  %11 = load i64, ptr %2, align 8
  %12 = getelementptr inbounds ptr, ptr %4, i64 %11
  %13 = load ptr, ptr %12, align 8
  %.not2133 = icmp eq ptr %13, null
  br i1 %.not2133, label %.thread, label %.lr.ph34

.lr.ph34:                                         ; preds = %.lr.ph, %yypop_buffer_state.exit
  %14 = phi ptr [ %57, %yypop_buffer_state.exit ], [ %13, %.lr.ph ]
  %15 = phi ptr [ %56, %yypop_buffer_state.exit ], [ %12, %.lr.ph ]
  store ptr null, ptr %15, align 8
  %16 = getelementptr inbounds i8, ptr %14, i64 32
  %17 = load i32, ptr %16, align 8
  %.not15.i = icmp eq i32 %17, 0
  br i1 %.not15.i, label %yy_delete_buffer.exit, label %18

18:                                               ; preds = %.lr.ph34
  %19 = getelementptr inbounds i8, ptr %14, i64 8
  %20 = load ptr, ptr %19, align 8
  tail call void @free(ptr noundef %20) #30
  br label %yy_delete_buffer.exit

yy_delete_buffer.exit:                            ; preds = %.lr.ph34, %18
  tail call void @free(ptr noundef nonnull %14) #30
  %.pre31 = load i64, ptr %2, align 8
  %.pre = load ptr, ptr %3, align 8
  %21 = getelementptr inbounds ptr, ptr %.pre, i64 %.pre31
  store ptr null, ptr %21, align 8
  %22 = load ptr, ptr %3, align 8
  %.not.i23 = icmp eq ptr %22, null
  br i1 %.not.i23, label %.thread, label %23

23:                                               ; preds = %yy_delete_buffer.exit
  %24 = load i64, ptr %2, align 8
  %25 = getelementptr inbounds ptr, ptr %22, i64 %24
  %26 = load ptr, ptr %25, align 8
  %.not20.i = icmp eq ptr %26, null
  br i1 %.not20.i, label %yypop_buffer_state.exit, label %27

27:                                               ; preds = %23
  store ptr null, ptr %25, align 8
  %28 = getelementptr inbounds i8, ptr %26, i64 32
  %29 = load i32, ptr %28, align 8
  %.not15.i.i = icmp eq i32 %29, 0
  br i1 %.not15.i.i, label %yy_delete_buffer.exit.i, label %30

30:                                               ; preds = %27
  %31 = getelementptr inbounds i8, ptr %26, i64 8
  %32 = load ptr, ptr %31, align 8
  tail call void @free(ptr noundef %32) #30
  br label %yy_delete_buffer.exit.i

yy_delete_buffer.exit.i:                          ; preds = %30, %27
  tail call void @free(ptr noundef nonnull %26) #30
  %33 = load ptr, ptr %3, align 8
  %34 = load i64, ptr %2, align 8
  %35 = getelementptr inbounds ptr, ptr %33, i64 %34
  store ptr null, ptr %35, align 8
  %36 = load i64, ptr %2, align 8
  %.not21.i = icmp eq i64 %36, 0
  br i1 %.not21.i, label %39, label %37

37:                                               ; preds = %yy_delete_buffer.exit.i
  %38 = add i64 %36, -1
  store i64 %38, ptr %2, align 8
  br label %39

39:                                               ; preds = %37, %yy_delete_buffer.exit.i
  %40 = phi i64 [ %38, %37 ], [ 0, %yy_delete_buffer.exit.i ]
  %41 = load ptr, ptr %3, align 8
  %.not22.i = icmp eq ptr %41, null
  br i1 %.not22.i, label %.thread, label %42

42:                                               ; preds = %39
  %43 = getelementptr inbounds ptr, ptr %41, i64 %40
  %44 = load ptr, ptr %43, align 8
  %.not23.i = icmp eq ptr %44, null
  br i1 %.not23.i, label %yypop_buffer_state.exit, label %45

45:                                               ; preds = %42
  %46 = getelementptr inbounds i8, ptr %44, i64 28
  %47 = load i32, ptr %46, align 4
  store i32 %47, ptr %5, align 4
  %48 = load ptr, ptr %43, align 8
  %49 = getelementptr inbounds i8, ptr %48, i64 16
  %50 = load ptr, ptr %49, align 8
  store ptr %50, ptr %6, align 8
  store ptr %50, ptr %7, align 8
  %51 = load ptr, ptr %43, align 8
  %52 = load ptr, ptr %51, align 8
  store ptr %52, ptr %8, align 8
  %53 = load i8, ptr %50, align 1
  store i8 %53, ptr %9, align 8
  store i32 1, ptr %10, align 8
  br label %yypop_buffer_state.exit

yypop_buffer_state.exit:                          ; preds = %23, %42, %45
  %54 = phi ptr [ %22, %23 ], [ %41, %42 ], [ %41, %45 ]
  %55 = load i64, ptr %2, align 8
  %56 = getelementptr inbounds ptr, ptr %54, i64 %55
  %57 = load ptr, ptr %56, align 8
  %.not21 = icmp eq ptr %57, null
  br i1 %.not21, label %.thread, label %.lr.ph34

.thread:                                          ; preds = %yypop_buffer_state.exit, %yy_delete_buffer.exit, %39, %.lr.ph, %1
  %.lcssa = phi ptr [ null, %1 ], [ %4, %.lr.ph ], [ null, %39 ], [ null, %yy_delete_buffer.exit ], [ %54, %yypop_buffer_state.exit ]
  tail call void @free(ptr noundef %.lcssa) #30
  store ptr null, ptr %3, align 8
  %58 = getelementptr inbounds i8, ptr %0, i64 96
  %59 = load ptr, ptr %58, align 8
  tail call void @free(ptr noundef %59) #30
  tail call void @free(ptr noundef nonnull %0) #30
  ret i32 0
}